; Function Attrs: mustprogress uwtable
define hidden void @_ZN7nanogui6Screen19char_callback_eventEj(ptr noundef nonnull align 8 dereferenceable(384) %0, i32 noundef %1) local_unnamed_addr #3 align 2 personality ptr @__gxx_personality_v0 {
  %3 = tail call double @glfwGetTime()
  %4 = getelementptr inbounds i8, ptr %0, i64 280
  store double %3, ptr %4, align 8
  %5 = load ptr, ptr %0, align 8
  %6 = getelementptr inbounds i8, ptr %5, i64 88
  %7 = load ptr, ptr %6, align 8
  %8 = invoke noundef zeroext i1 %7(ptr noundef nonnull align 8 dereferenceable(384) %0, i32 noundef %1)
          to label %9 unwind label %15

9:                                                ; preds = %2
  %10 = getelementptr inbounds i8, ptr %0, i64 349
  %11 = load i8, ptr %10, align 1
  %12 = and i8 %11, 1
  %13 = zext i1 %8 to i8
  %14 = or i8 %12, %13
  store i8 %14, ptr %10, align 1
  br label %33

15:                                               ; preds = %2
  %16 = landingpad { ptr, i32 }
          catch ptr @_ZTISt9exception
  %17 = extractvalue { ptr, i32 } %16, 1
  %18 = tail call i32 @llvm.eh.typeid.for(ptr nonnull @_ZTISt9exception) #30
  %19 = icmp eq i32 %17, %18
  br i1 %19, label %20, label %36

20:                                               ; preds = %15
  %21 = extractvalue { ptr, i32 } %16, 0
  %22 = tail call ptr @__cxa_begin_catch(ptr %21) #30
  %23 = invoke noundef nonnull align 8 dereferenceable(8) ptr @_ZStlsISt11char_traitsIcEERSt13basic_ostreamIcT_ES5_PKc(ptr noundef nonnull align 8 dereferenceable(8) @_ZSt4cerr, ptr noundef nonnull @.str.9)
          to label %24 unwind label %34

24:                                               ; preds = %20
  %25 = load ptr, ptr %22, align 8
  %26 = getelementptr inbounds i8, ptr %25, i64 16
  %27 = load ptr, ptr %26, align 8
  %28 = tail call noundef ptr %27(ptr noundef nonnull align 8 dereferenceable(8) %22) #30
  %29 = invoke noundef nonnull align 8 dereferenceable(8) ptr @_ZStlsISt11char_traitsIcEERSt13basic_ostreamIcT_ES5_PKc(ptr noundef nonnull align 8 dereferenceable(8) %23, ptr noundef %28)
          to label %30 unwind label %34

30:                                               ; preds = %24
  %31 = invoke noundef nonnull align 8 dereferenceable(8) ptr @_ZNSolsEPFRSoS_E(ptr noundef nonnull align 8 dereferenceable(8) %29, ptr noundef nonnull @_ZSt4endlIcSt11char_traitsIcEERSt13basic_ostreamIT_T0_ES6_)
          to label %32 unwind label %34

32:                                               ; preds = %30
  tail call void @__cxa_end_catch()
  br label %33

33:                                               ; preds = %32, %9
  ret void

34:                                               ; preds = %30, %24, %20
  %35 = landingpad { ptr, i32 }
          cleanup
  invoke void @__cxa_end_catch()
          to label %36 unwind label %37

36:                                               ; preds = %34, %15
  %.merged = phi { ptr, i32 } [ %35, %34 ], [ %16, %15 ]
  resume { ptr, i32 } %.merged

37:                                               ; preds = %34
  %38 = landingpad { ptr, i32 }
          catch ptr null
  %39 = extractvalue { ptr, i32 } %38, 0
  tail call void @__clang_call_terminate(ptr %39) #31
  unreachable
}